(lp1
(I0
I1
tp2
a(I1
I2
tp3
a(I2
I4
tp4
a(I3
I13
tp5
a(I4
I18
tp6
a(I5
I0
tp7
a(I6
I19
tp8
a(I7
I6
tp9
a(I8
I20
tp10
a(I9
I21
tp11
a(I10
I22
tp12
a(I11
I23
tp13
a(I12
I25
tp14
a(I13
I8
tp15
a(I14
I9
tp16
a(I15
I26
tp17
a(I16
I28
tp18
a(I17
I36
tp19
a(I18
I37
tp20
a(I19
I43
tp21
a(I20
I48
tp22
a(I21
I10
tp23
a(I22
I14
tp24
a(I23
I24
tp25
a.