(lp1
(I0
I0
tp2
a(I1
I3
tp3
a(I2
I4
tp4
a(I3
I2
tp5
a(I4
I8
tp6
a(I5
I11
tp7
a(I6
I5
tp8
a(I7
I12
tp9
a(I8
I13
tp10
a(I9
I14
tp11
a(I10
I15
tp12
a(I11
I6
tp13
a(I12
I20
tp14
a(I13
I25
tp15
a(I14
I28
tp16
a(I15
I7
tp17
a(I16
I29
tp18
a(I17
I35
tp19
a(I18
I38
tp20
a(I19
I17
tp21
a(I20
I39
tp22
a(I21
I41
tp23
a(I22
I44
tp24
a(I23
I45
tp25
a.