(lp1
(I0
I1
tp2
a(I1
I2
tp3
a(I2
I3
tp4
a(I3
I0
tp5
a(I4
I6
tp6
a(I5
I7
tp7
a(I6
I4
tp8
a(I7
I8
tp9
a(I8
I10
tp10
a(I9
I15
tp11
a(I10
I17
tp12
a(I11
I5
tp13
a(I12
I19
tp14
a(I13
I25
tp15
a(I14
I26
tp16
a(I15
I9
tp17
a(I16
I28
tp18
a(I17
I31
tp19
a(I18
I34
tp20
a(I19
I11
tp21
a(I20
I36
tp22
a(I21
I37
tp23
a(I22
I39
tp24
a(I23
I42
tp25
a.