(lp1
(I0
I5
tp2
a(I1
I6
tp3
a(I2
I7
tp4
a(I3
I8
tp5
a(I4
I10
tp6
a(I5
I11
tp7
a(I6
I31
tp8
a(I7
I1
tp9
a(I8
I34
tp10
a(I9
I35
tp11
a(I10
I36
tp12
a(I11
I2
tp13
a(I12
I3
tp14
a(I13
I38
tp15
a(I14
I12
tp16
a(I15
I44
tp17
a(I16
I46
tp18
a(I17
I48
tp19
a(I18
I51
tp20
a(I19
I13
tp21
a(I20
I53
tp22
a(I21
I14
tp23
a(I22
I15
tp24
a(I23
I16
tp25
a(I24
I56
tp26
a(I25
I18
tp27
a(I26
I61
tp28
a(I27
I19
tp29
a(I28
I62
tp30
a(I29
I70
tp31
a(I30
I20
tp32
a(I31
I72
tp33
a(I32
I76
tp34
a(I33
I79
tp35
a(I34
I88
tp36
a(I35
I23
tp37
a(I36
I24
tp38
a(I37
I93
tp39
a(I38
I25
tp40
a(I39
I26
tp41
a(I40
I107
tp42
a(I41
I116
tp43
a(I42
I119
tp44
a(I43
I129
tp45
a(I44
I130
tp46
a(I45
I131
tp47
a(I46
I135
tp48
a(I47
I28
tp49
a(I48
I140
tp50
a(I49
I29
tp51
a(I50
I142
tp52
a(I51
I30
tp53
a(I52
I146
tp54
a(I53
I150
tp55
a(I54
I33
tp56
a(I55
I152
tp57
a(I56
I153
tp58
a(I57
I156
tp59
a(I58
I157
tp60
a(I59
I39
tp61
a(I60
I162
tp62
a(I61
I164
tp63
a(I62
I41
tp64
a(I63
I42
tp65
a(I64
I173
tp66
a(I65
I45
tp67
a(I66
I174
tp68
a(I67
I47
tp69
a(I68
I175
tp70
a(I69
I184
tp71
a(I70
I50
tp72
a(I71
I186
tp73
a(I72
I187
tp74
a(I73
I190
tp75
a(I74
I191
tp76
a(I75
I58
tp77
a(I76
I196
tp78
a(I77
I66
tp79
a(I78
I197
tp80
a(I79
I71
tp81
a(I80
I198
tp82
a(I81
I199
tp83
a(I82
I201
tp84
a(I83
I74
tp85
a(I84
I77
tp86
a(I85
I204
tp87
a(I86
I82
tp88
a(I87
I83
tp89
a(I88
I206
tp90
a(I89
I207
tp91
a(I90
I208
tp92
a(I91
I209
tp93
a(I92
I213
tp94
a(I93
I215
tp95
a(I94
I216
tp96
a(I95
I218
tp97
a(I96
I220
tp98
a(I97
I222
tp99
a(I98
I223
tp100
a(I99
I84
tp101
a(I100
I86
tp102
a(I101
I87
tp103
a(I102
I89
tp104
a(I103
I225
tp105
a.