(lp1
(I0
I0
tp2
a(I1
I3
tp3
a(I2
I5
tp4
a(I3
I2
tp5
a(I4
I6
tp6
a(I5
I8
tp7
a(I6
I9
tp8
a(I7
I11
tp9
a(I8
I10
tp10
a(I9
I12
tp11
a(I10
I16
tp12
a(I11
I14
tp13
a(I12
I18
tp14
a(I13
I19
tp15
a(I14
I22
tp16
a(I15
I25
tp17
a(I16
I29
tp18
a(I17
I33
tp19
a(I18
I35
tp20
a(I19
I15
tp21
a(I20
I36
tp22
a(I21
I46
tp23
a(I22
I50
tp24
a(I23
I17
tp25
a(I24
I54
tp26
a(I25
I60
tp27
a(I26
I65
tp28
a(I27
I23
tp29
a(I28
I68
tp30
a(I29
I24
tp31
a(I30
I32
tp32
a(I31
I74
tp33
a(I32
I79
tp34
a(I33
I84
tp35
a(I34
I87
tp36
a(I35
I34
tp37
a(I36
I93
tp38
a(I37
I40
tp39
a(I38
I43
tp40
a(I39
I49
tp41
a.