(lp1
(I0
I0
tp2
a(I1
I2
tp3
a(I2
I4
tp4
a(I3
I8
tp5
a(I4
I10
tp6
a(I5
I3
tp7
a(I6
I5
tp8
a(I7
I12
tp9
a(I8
I19
tp10
a(I9
I23
tp11
a(I10
I27
tp12
a(I11
I11
tp13
a(I12
I16
tp14
a(I13
I28
tp15
a(I14
I20
tp16
a(I15
I29
tp17
a(I16
I30
tp18
a(I17
I32
tp19
a(I18
I33
tp20
a(I19
I21
tp21
a(I20
I24
tp22
a(I21
I35
tp23
a(I22
I25
tp24
a(I23
I39
tp25
a(I24
I37
tp26
a(I25
I40
tp27
a(I26
I42
tp28
a(I27
I44
tp29
a(I28
I45
tp30
a(I29
I48
tp31
a(I30
I57
tp32
a(I31
I46
tp33
a(I32
I60
tp34
a(I33
I51
tp35
a(I34
I61
tp36
a(I35
I52
tp37
a(I36
I64
tp38
a(I37
I66
tp39
a(I38
I53
tp40
a(I39
I69
tp41
a(I40
I70
tp42
a(I41
I75
tp43
a(I42
I76
tp44
a(I43
I58
tp45
a(I44
I67
tp46
a(I45
I77
tp47
a(I46
I71
tp48
a(I47
I72
tp49
a(I48
I81
tp50
a(I49
I92
tp51
a(I50
I93
tp52
a(I51
I96
tp53
a(I52
I98
tp54
a(I53
I100
tp55
a(I54
I101
tp56
a(I55
I74
tp57
a(I56
I104
tp58
a(I57
I80
tp59
a(I58
I106
tp60
a(I59
I87
tp61
a(I60
I113
tp62
a(I61
I115
tp63
a(I62
I95
tp64
a(I63
I118
tp65
a(I64
I120
tp66
a(I65
I127
tp67
a(I66
I130
tp68
a(I67
I108
tp69
a(I68
I132
tp70
a(I69
I134
tp71
a(I70
I114
tp72
a(I71
I119
tp73
a(I72
I136
tp74
a(I73
I131
tp75
a(I74
I155
tp76
a(I75
I137
tp77
a(I76
I157
tp78
a(I77
I158
tp79
a(I78
I139
tp80
a(I79
I159
tp81
a(I80
I160
tp82
a(I81
I165
tp83
a(I82
I170
tp84
a(I83
I146
tp85
a(I84
I171
tp86
a(I85
I147
tp87
a(I86
I175
tp88
a(I87
I148
tp89
a(I88
I182
tp90
a(I89
I183
tp91
a(I90
I185
tp92
a(I91
I149
tp93
a(I92
I150
tp94
a(I93
I188
tp95
a(I94
I154
tp96
a(I95
I164
tp97
a.