(lp1
(I0
I1
tp2
a(I1
I2
tp3
a(I2
I6
tp4
a(I3
I0
tp5
a(I4
I14
tp6
a(I5
I17
tp7
a(I6
I9
tp8
a(I7
I10
tp9
a(I8
I15
tp10
a(I9
I19
tp11
a(I10
I20
tp12
a(I11
I18
tp13
a(I12
I22
tp14
a(I13
I23
tp15
a(I14
I24
tp16
a(I15
I26
tp17
a(I16
I27
tp18
a(I17
I31
tp19
a(I18
I33
tp20
a(I19
I28
tp21
a(I20
I30
tp22
a(I21
I36
tp23
a(I22
I38
tp24
a(I23
I41
tp25
a(I24
I43
tp26
a(I25
I44
tp27
a(I26
I46
tp28
a(I27
I32
tp29
a(I28
I47
tp30
a(I29
I48
tp31
a(I30
I53
tp32
a(I31
I56
tp33
a(I32
I59
tp34
a(I33
I65
tp35
a(I34
I67
tp36
a(I35
I50
tp37
a(I36
I54
tp38
a(I37
I71
tp39
a(I38
I58
tp40
a(I39
I61
tp41
a.