(lp1
(I0
I0
tp2
a(I1
I14
tp3
a(I2
I1
tp4
a(I3
I2
tp5
a(I4
I6
tp6
a(I5
I9
tp7
a(I6
I17
tp8
a(I7
I10
tp9
a(I8
I18
tp10
a(I9
I20
tp11
a(I10
I15
tp12
a(I11
I19
tp13
a(I12
I22
tp14
a(I13
I26
tp15
a(I14
I23
tp16
a(I15
I24
tp17
a(I16
I28
tp18
a(I17
I30
tp19
a(I18
I27
tp20
a(I19
I31
tp21
a(I20
I33
tp22
a(I21
I32
tp23
a(I22
I36
tp24
a(I23
I38
tp25
a(I24
I43
tp26
a(I25
I47
tp27
a(I26
I41
tp28
a(I27
I44
tp29
a(I28
I50
tp30
a(I29
I46
tp31
a(I30
I48
tp32
a(I31
I53
tp33
a(I32
I54
tp34
a(I33
I58
tp35
a(I34
I56
tp36
a(I35
I59
tp37
a(I36
I61
tp38
a(I37
I65
tp39
a(I38
I64
tp40
a(I39
I67
tp41
a(I40
I69
tp42
a(I41
I72
tp43
a(I42
I71
tp44
a(I43
I78
tp45
a(I44
I74
tp46
a(I45
I77
tp47
a(I46
I79
tp48
a(I47
I82
tp49
a(I48
I86
tp50
a(I49
I90
tp51
a(I50
I83
tp52
a(I51
I85
tp53
a(I52
I94
tp54
a(I53
I97
tp55
a(I54
I103
tp56
a(I55
I88
tp57
a(I56
I104
tp58
a(I57
I108
tp59
a(I58
I89
tp60
a(I59
I115
tp61
a(I60
I91
tp62
a(I61
I93
tp63
a(I62
I99
tp64
a.